; Function Attrs: nounwind uwtable
define void @Acb_NtkCollectDeref_rec(ptr noundef readonly captures(none) %0, ptr noundef readonly captures(none) %1, i32 noundef %2, ptr noundef captures(none) %3) local_unnamed_addr #0 {
  %5 = getelementptr i8, ptr %1, i64 120
  %.val18 = load ptr, ptr %5, align 8, !tbaa !23
  %6 = sext i32 %2 to i64
  %7 = getelementptr inbounds i8, ptr %.val18, i64 %6
  %8 = load i8, ptr %7, align 1, !tbaa !24
  %.not = icmp eq i8 %8, 3
  br i1 %.not, label %.critedge, label %9

9:                                                ; preds = %4
  %10 = getelementptr inbounds nuw i8, ptr %3, i64 4
  %11 = load i32, ptr %10, align 4, !tbaa !27
  %12 = load i32, ptr %3, align 8, !tbaa !28
  %13 = icmp eq i32 %11, %12
  br i1 %13, label %14, label %.Vec_IntGrow.exit10_crit_edge.i

.Vec_IntGrow.exit10_crit_edge.i:                  ; preds = %9
  %.phi.trans.insert.i = getelementptr inbounds nuw i8, ptr %3, i64 8
  %.pre.i = load ptr, ptr %.phi.trans.insert.i, align 8, !tbaa !21
  br label %Vec_IntPush.exit

14:                                               ; preds = %9
  %15 = icmp slt i32 %11, 16
  br i1 %15, label %16, label %24

16:                                               ; preds = %14
  %17 = getelementptr inbounds nuw i8, ptr %3, i64 8
  %18 = load ptr, ptr %17, align 8, !tbaa !21
  %.not9.i.i = icmp eq ptr %18, null
  br i1 %.not9.i.i, label %21, label %19

19:                                               ; preds = %16
  %20 = tail call dereferenceable_or_null(64) ptr @realloc(ptr noundef nonnull %18, i64 noundef 64) #25
  br label %Vec_IntGrow.exit.i

21:                                               ; preds = %16
  %22 = tail call noalias dereferenceable_or_null(64) ptr @malloc(i64 noundef 64) #26
  br label %Vec_IntGrow.exit.i

Vec_IntGrow.exit.i:                               ; preds = %21, %19
  %23 = phi ptr [ %20, %19 ], [ %22, %21 ]
  store ptr %23, ptr %17, align 8, !tbaa !21
  store i32 16, ptr %3, align 8, !tbaa !28
  br label %Vec_IntPush.exit

24:                                               ; preds = %14
  %25 = shl nuw nsw i32 %11, 1
  %26 = getelementptr inbounds nuw i8, ptr %3, i64 8
  %27 = load ptr, ptr %26, align 8, !tbaa !21
  %.not9.i9.i = icmp eq ptr %27, null
  %28 = zext nneg i32 %25 to i64
  %29 = shl nuw nsw i64 %28, 2
  br i1 %.not9.i9.i, label %32, label %30

30:                                               ; preds = %24
  %31 = tail call ptr @realloc(ptr noundef nonnull %27, i64 noundef %29) #25
  br label %34

32:                                               ; preds = %24
  %33 = tail call noalias ptr @malloc(i64 noundef %29) #26
  br label %34

34:                                               ; preds = %32, %30
  %35 = phi ptr [ %31, %30 ], [ %33, %32 ]
  store ptr %35, ptr %26, align 8, !tbaa !21
  store i32 %25, ptr %3, align 8, !tbaa !28
  br label %Vec_IntPush.exit

Vec_IntPush.exit:                                 ; preds = %.Vec_IntGrow.exit10_crit_edge.i, %Vec_IntGrow.exit.i, %34
  %36 = phi ptr [ %.pre.i, %.Vec_IntGrow.exit10_crit_edge.i ], [ %35, %34 ], [ %23, %Vec_IntGrow.exit.i ]
  %37 = load i32, ptr %10, align 4, !tbaa !27
  %38 = add nsw i32 %37, 1
  store i32 %38, ptr %10, align 4, !tbaa !27
  %39 = sext i32 %37 to i64
  %40 = getelementptr inbounds i32, ptr %36, i64 %39
  store i32 %2, ptr %40, align 4, !tbaa !22
  %41 = getelementptr i8, ptr %1, i64 136
  %.val19 = load ptr, ptr %41, align 8, !tbaa !21
  %42 = getelementptr i8, ptr %1, i64 152
  %.val20 = load ptr, ptr %42, align 8, !tbaa !21
  %43 = getelementptr inbounds i32, ptr %.val19, i64 %6
  %44 = load i32, ptr %43, align 4, !tbaa !22
  %45 = sext i32 %44 to i64
  %46 = getelementptr inbounds i32, ptr %.val20, i64 %45
  %47 = load i32, ptr %46, align 4, !tbaa !22
  %48 = icmp sgt i32 %47, 0
  br i1 %48, label %.lr.ph, label %.critedge

.lr.ph:                                           ; preds = %Vec_IntPush.exit
  %49 = getelementptr i8, ptr %0, i64 8
  br label %50

50:                                               ; preds = %.lr.ph, %59
  %indvars.iv = phi i64 [ 0, %.lr.ph ], [ %indvars.iv.next, %59 ]
  %indvars.iv.next = add nuw nsw i64 %indvars.iv, 1
  %51 = getelementptr inbounds nuw i32, ptr %46, i64 %indvars.iv.next
  %52 = load i32, ptr %51, align 4, !tbaa !22
  %.val21 = load ptr, ptr %49, align 8, !tbaa !21
  %53 = sext i32 %52 to i64
  %54 = getelementptr inbounds i32, ptr %.val21, i64 %53
  %55 = load i32, ptr %54, align 4, !tbaa !22
  %56 = add nsw i32 %55, -1
  store i32 %56, ptr %54, align 4, !tbaa !22
  %57 = icmp eq i32 %56, 0
  br i1 %57, label %58, label %59

58:                                               ; preds = %50
  tail call void @Acb_NtkCollectDeref_rec(ptr noundef nonnull %0, ptr noundef %1, i32 noundef %52, ptr noundef nonnull %3)
  br label %59

59:                                               ; preds = %50, %58
  %60 = load i32, ptr %46, align 4, !tbaa !22
  %61 = sext i32 %60 to i64
  %62 = icmp slt i64 %indvars.iv.next, %61
  br i1 %62, label %50, label %.critedge, !llvm.loop !47

.critedge:                                        ; preds = %59, %Vec_IntPush.exit, %4
  ret void
}